target datalayout = "e-m:e-p270:32:32-p271:32:32-p272:64:64-i64:64-i128:128-f80:128-n8:16:32:64-S128"
target triple = "x86_64-pc-linux-gnu"

%struct.Aig_Man_t_ = type { ptr, ptr, ptr, ptr, ptr, ptr, ptr, %struct.Aig_Obj_t_, i32, i32, i32, i32, i32, i32, [7 x i32], i32, ptr, i32, ptr, i32, ptr, i32, i32, i32, ptr, i32, i32, i32, i32, i32, ptr, ptr, i32, ptr, ptr, i32, ptr, ptr, i32, i32, i32, ptr, ptr, ptr, ptr, ptr, ptr, ptr, ptr, ptr, ptr, ptr, ptr, ptr, ptr, i32, ptr, ptr, ptr, ptr, i32, i64, i64, i64, ptr, ptr }
%struct.Aig_Obj_t_ = type { %union.anon.0, ptr, ptr, i64, i32, i32, %union.anon.1 }
%union.anon.0 = type { ptr }
%union.anon.1 = type { ptr }
%struct.Vec_Ptr_t_ = type { i32, i32, ptr }

@.str = private unnamed_addr constant [51 x i8] c"Aig_ManConvertBddsToAigs(): The check has failed.\0A\00", align 1

; Function Attrs: nounwind uwtable
define internal i32 @Aig_IsComplement(ptr noundef %0) #0 {
  %2 = alloca ptr, align 8
  store ptr %0, ptr %2, align 8
  %3 = load ptr, ptr %2, align 8
  %4 = ptrtoint ptr %3 to i64
  %5 = and i64 %4, 1
  %6 = trunc i64 %5 to i32
  ret i32 %6
}

; Function Attrs: nounwind uwtable
define internal i32 @Aig_ObjFaninC0(ptr noundef %0) #0 {
  %2 = alloca ptr, align 8
  store ptr %0, ptr %2, align 8
  %3 = load ptr, ptr %2, align 8
  %4 = getelementptr inbounds %struct.Aig_Obj_t_, ptr %3, i32 0, i32 1
  %5 = load ptr, ptr %4, align 8
  %6 = call i32 @Aig_IsComplement(ptr noundef %5)
  ret i32 %6
}

; Function Attrs: nounwind uwtable
define internal ptr @Aig_Regular(ptr noundef %0) #0 {
  %2 = alloca ptr, align 8
  store ptr %0, ptr %2, align 8
  %3 = load ptr, ptr %2, align 8
  %4 = ptrtoint ptr %3 to i64
  %5 = and i64 %4, -2
  %6 = inttoptr i64 %5 to ptr
  ret ptr %6
}

; Function Attrs: nounwind uwtable
define internal i32 @Aig_ManRegNum(ptr noundef %0) #0 {
  %2 = alloca ptr, align 8
  store ptr %0, ptr %2, align 8
  %3 = load ptr, ptr %2, align 8
  %4 = getelementptr inbounds %struct.Aig_Man_t_, ptr %3, i32 0, i32 8
  %5 = load i32, ptr %4, align 8
  ret i32 %5
}

; Function Attrs: nounwind uwtable
define internal ptr @Aig_ObjChild0Copy(ptr noundef %0) #0 {
  %2 = alloca ptr, align 8
  store ptr %0, ptr %2, align 8
  %3 = load ptr, ptr %2, align 8
  %4 = call ptr @Aig_ObjFanin0(ptr noundef %3)
  %5 = icmp ne ptr %4, null
  br i1 %5, label %6, label %14

6:                                                ; preds = %1
  %7 = load ptr, ptr %2, align 8
  %8 = call ptr @Aig_ObjFanin0(ptr noundef %7)
  %9 = getelementptr inbounds %struct.Aig_Obj_t_, ptr %8, i32 0, i32 6
  %10 = load ptr, ptr %9, align 8
  %11 = load ptr, ptr %2, align 8
  %12 = call i32 @Aig_ObjFaninC0(ptr noundef %11)
  %13 = call ptr @Aig_NotCond(ptr noundef %10, i32 noundef %12)
  br label %15

14:                                               ; preds = %1
  br label %15

15:                                               ; preds = %14, %6
  %16 = phi ptr [ %13, %6 ], [ null, %14 ]
  ret ptr %16
}

; Function Attrs: nounwind uwtable
define internal ptr @Aig_ObjFanin0(ptr noundef %0) #0 {
  %2 = alloca ptr, align 8
  store ptr %0, ptr %2, align 8
  %3 = load ptr, ptr %2, align 8
  %4 = getelementptr inbounds %struct.Aig_Obj_t_, ptr %3, i32 0, i32 1
  %5 = load ptr, ptr %4, align 8
  %6 = call ptr @Aig_Regular(ptr noundef %5)
  ret ptr %6
}

; Function Attrs: nounwind uwtable
define internal ptr @Aig_NotCond(ptr noundef %0, i32 noundef %1) #0 {
  %3 = alloca ptr, align 8
  %4 = alloca i32, align 4
  store ptr %0, ptr %3, align 8
  store i32 %1, ptr %4, align 4
  %5 = load ptr, ptr %3, align 8
  %6 = ptrtoint ptr %5 to i64
  %7 = load i32, ptr %4, align 4
  %8 = sext i32 %7 to i64
  %9 = xor i64 %6, %8
  %10 = inttoptr i64 %9 to ptr
  ret ptr %10
}

; Function Attrs: nounwind uwtable
define internal ptr @Vec_PtrEntry(ptr noundef %0, i32 noundef %1) #0 {
  %3 = alloca ptr, align 8
  %4 = alloca i32, align 4
  store ptr %0, ptr %3, align 8
  store i32 %1, ptr %4, align 4
  %5 = load ptr, ptr %3, align 8
  %6 = getelementptr inbounds %struct.Vec_Ptr_t_, ptr %5, i32 0, i32 2
  %7 = load ptr, ptr %6, align 8
  %8 = load i32, ptr %4, align 4
  %9 = sext i32 %8 to i64
  %10 = getelementptr inbounds ptr, ptr %7, i64 %9
  %11 = load ptr, ptr %10, align 8
  ret ptr %11
}

; Function Attrs: nounwind uwtable
define internal i32 @Vec_PtrSize(ptr noundef %0) #0 {
  %2 = alloca ptr, align 8
  store ptr %0, ptr %2, align 8
  %3 = load ptr, ptr %2, align 8
  %4 = getelementptr inbounds %struct.Vec_Ptr_t_, ptr %3, i32 0, i32 1
  %5 = load i32, ptr %4, align 4
  ret i32 %5
}

; Function Attrs: nounwind uwtable
define internal ptr @Aig_ManConst1(ptr noundef %0) #0 {
  %2 = alloca ptr, align 8
  store ptr %0, ptr %2, align 8
  %3 = load ptr, ptr %2, align 8
  %4 = getelementptr inbounds %struct.Aig_Man_t_, ptr %3, i32 0, i32 6
  %5 = load ptr, ptr %4, align 8
  ret ptr %5
}

; Function Attrs: nounwind uwtable
define internal ptr @Abc_UtilStrsav(ptr noundef %0) #0 {
  %2 = alloca ptr, align 8
  store ptr %0, ptr %2, align 8
  %3 = load ptr, ptr %2, align 8
  %4 = icmp ne ptr %3, null
  br i1 %4, label %5, label %13

5:                                                ; preds = %1
  %6 = load ptr, ptr %2, align 8
  %7 = call i64 @strlen(ptr noundef %6) #8
  %8 = add i64 %7, 1
  %9 = mul i64 1, %8
  %10 = call noalias ptr @malloc(i64 noundef %9) #9
  %11 = load ptr, ptr %2, align 8
  %12 = call ptr @strcpy(ptr noundef %10, ptr noundef %11) #10
  br label %14

13:                                               ; preds = %1
  br label %14

14:                                               ; preds = %13, %5
  %15 = phi ptr [ %12, %5 ], [ null, %13 ]
  ret ptr %15
}

; Function Attrs: nounwind uwtable
define internal i32 @Aig_ManObjNum(ptr noundef %0) #0 {
  %2 = alloca ptr, align 8
  store ptr %0, ptr %2, align 8
  %3 = load ptr, ptr %2, align 8
  %4 = getelementptr inbounds %struct.Aig_Man_t_, ptr %3, i32 0, i32 4
  %5 = load ptr, ptr %4, align 8
  %6 = call i32 @Vec_PtrSize(ptr noundef %5)
  %7 = load ptr, ptr %2, align 8
  %8 = getelementptr inbounds %struct.Aig_Man_t_, ptr %7, i32 0, i32 15
  %9 = load i32, ptr %8, align 4
  %10 = sub nsw i32 %6, %9
  ret i32 %10
}

; Function Attrs: nounwind uwtable
define ptr @Aig_ManConvertBddsToAigs(ptr noundef %0, ptr noundef %1, ptr noundef %2) #0 {
  %4 = alloca ptr, align 8
  %5 = alloca ptr, align 8
  %6 = alloca ptr, align 8
  %7 = alloca ptr, align 8
  %8 = alloca ptr, align 8
  %9 = alloca ptr, align 8
  %10 = alloca ptr, align 8
  %11 = alloca i32, align 4
  store ptr %0, ptr %4, align 8
  store ptr %1, ptr %5, align 8
  store ptr %2, ptr %6, align 8
  %12 = load ptr, ptr %4, align 8
  call void @Aig_ManCleanData(ptr noundef %12)
  %13 = load ptr, ptr %4, align 8
  %14 = call i32 @Aig_ManObjNum(ptr noundef %13)
  %15 = call ptr @Aig_ManStart(i32 noundef %14)
  store ptr %15, ptr %9, align 8
  %16 = load ptr, ptr %4, align 8
  %17 = getelementptr inbounds %struct.Aig_Man_t_, ptr %16, i32 0, i32 0
  %18 = load ptr, ptr %17, align 8
  %19 = call ptr @Abc_UtilStrsav(ptr noundef %18)
  %20 = load ptr, ptr %9, align 8
  %21 = getelementptr inbounds %struct.Aig_Man_t_, ptr %20, i32 0, i32 0
  store ptr %19, ptr %21, align 8
  %22 = load ptr, ptr %9, align 8
  %23 = call ptr @Aig_ManConst1(ptr noundef %22)
  %24 = load ptr, ptr %4, align 8
  %25 = call ptr @Aig_ManConst1(ptr noundef %24)
  %26 = getelementptr inbounds %struct.Aig_Obj_t_, ptr %25, i32 0, i32 6
  store ptr %23, ptr %26, align 8
  store i32 0, ptr %11, align 4
  br label %27

27:                                               ; preds = %47, %3
  %28 = load i32, ptr %11, align 4
  %29 = load ptr, ptr %4, align 8
  %30 = getelementptr inbounds %struct.Aig_Man_t_, ptr %29, i32 0, i32 2
  %31 = load ptr, ptr %30, align 8
  %32 = call i32 @Vec_PtrSize(ptr noundef %31)
  %33 = icmp slt i32 %28, %32
  br i1 %33, label %34, label %40

34:                                               ; preds = %27
  %35 = load ptr, ptr %4, align 8
  %36 = getelementptr inbounds %struct.Aig_Man_t_, ptr %35, i32 0, i32 2
  %37 = load ptr, ptr %36, align 8
  %38 = load i32, ptr %11, align 4
  %39 = call ptr @Vec_PtrEntry(ptr noundef %37, i32 noundef %38)
  store ptr %39, ptr %10, align 8
  br label %40

40:                                               ; preds = %34, %27
  %41 = phi i1 [ false, %27 ], [ true, %34 ]
  br i1 %41, label %42, label %50

42:                                               ; preds = %40
  %43 = load ptr, ptr %9, align 8
  %44 = call ptr @Aig_ObjCreateCi(ptr noundef %43)
  %45 = load ptr, ptr %10, align 8
  %46 = getelementptr inbounds %struct.Aig_Obj_t_, ptr %45, i32 0, i32 6
  store ptr %44, ptr %46, align 8
  br label %47

47:                                               ; preds = %42
  %48 = load i32, ptr %11, align 4
  %49 = add nsw i32 %48, 1
  store i32 %49, ptr %11, align 4
  br label %27, !llvm.loop !4

50:                                               ; preds = %40
  %51 = call ptr @st__init_table(ptr noundef @st__ptrcmp, ptr noundef @st__ptrhash)
  store ptr %51, ptr %8, align 8
  %52 = load ptr, ptr %8, align 8
  %53 = load ptr, ptr %5, align 8
  %54 = call ptr @Cudd_ReadOne(ptr noundef %53)
  %55 = load ptr, ptr %9, align 8
  %56 = call ptr @Aig_ManConst1(ptr noundef %55)
  %57 = call i32 @st__insert(ptr noundef %52, ptr noundef %54, ptr noundef %56)
  store i32 0, ptr %11, align 4
  br label %58

58:                                               ; preds = %82, %50
  %59 = load i32, ptr %11, align 4
  %60 = load ptr, ptr %4, align 8
  %61 = getelementptr inbounds %struct.Aig_Man_t_, ptr %60, i32 0, i32 2
  %62 = load ptr, ptr %61, align 8
  %63 = call i32 @Vec_PtrSize(ptr noundef %62)
  %64 = icmp slt i32 %59, %63
  br i1 %64, label %65, label %71

65:                                               ; preds = %58
  %66 = load ptr, ptr %4, align 8
  %67 = getelementptr inbounds %struct.Aig_Man_t_, ptr %66, i32 0, i32 2
  %68 = load ptr, ptr %67, align 8
  %69 = load i32, ptr %11, align 4
  %70 = call ptr @Vec_PtrEntry(ptr noundef %68, i32 noundef %69)
  store ptr %70, ptr %10, align 8
  br label %71

71:                                               ; preds = %65, %58
  %72 = phi i1 [ false, %58 ], [ true, %65 ]
  br i1 %72, label %73, label %85

73:                                               ; preds = %71
  %74 = load ptr, ptr %8, align 8
  %75 = load ptr, ptr %5, align 8
  %76 = load i32, ptr %11, align 4
  %77 = call ptr @Cudd_bddIthVar(ptr noundef %75, i32 noundef %76)
  %78 = load ptr, ptr %10, align 8
  %79 = getelementptr inbounds %struct.Aig_Obj_t_, ptr %78, i32 0, i32 6
  %80 = load ptr, ptr %79, align 8
  %81 = call i32 @st__insert(ptr noundef %74, ptr noundef %77, ptr noundef %80)
  br label %82

82:                                               ; preds = %73
  %83 = load i32, ptr %11, align 4
  %84 = add nsw i32 %83, 1
  store i32 %84, ptr %11, align 4
  br label %58, !llvm.loop !6

85:                                               ; preds = %71
  store i32 0, ptr %11, align 4
  br label %86

86:                                               ; preds = %121, %85
  %87 = load i32, ptr %11, align 4
  %88 = load ptr, ptr %6, align 8
  %89 = call i32 @Vec_PtrSize(ptr noundef %88)
  %90 = icmp slt i32 %87, %89
  br i1 %90, label %91, label %95

91:                                               ; preds = %86
  %92 = load ptr, ptr %6, align 8
  %93 = load i32, ptr %11, align 4
  %94 = call ptr @Vec_PtrEntry(ptr noundef %92, i32 noundef %93)
  store ptr %94, ptr %7, align 8
  br label %95

95:                                               ; preds = %91, %86
  %96 = phi i1 [ false, %86 ], [ true, %91 ]
  br i1 %96, label %97, label %124

97:                                               ; preds = %95
  %98 = load ptr, ptr %7, align 8
  %99 = load ptr, ptr %5, align 8
  %100 = call ptr @Cudd_ReadLogicZero(ptr noundef %99)
  %101 = icmp eq ptr %98, %100
  br i1 %101, label %102, label %103

102:                                              ; preds = %97
  br label %121

103:                                              ; preds = %97
  %104 = load ptr, ptr %5, align 8
  %105 = load ptr, ptr %7, align 8
  %106 = ptrtoint ptr %105 to i64
  %107 = and i64 %106, -2
  %108 = inttoptr i64 %107 to ptr
  %109 = load ptr, ptr %9, align 8
  %110 = load ptr, ptr %8, align 8
  %111 = call ptr @Aig_NodeBddToMuxes_rec(ptr noundef %104, ptr noundef %108, ptr noundef %109, ptr noundef %110)
  store ptr %111, ptr %10, align 8
  %112 = load ptr, ptr %10, align 8
  %113 = load ptr, ptr %7, align 8
  %114 = ptrtoint ptr %113 to i64
  %115 = and i64 %114, 1
  %116 = trunc i64 %115 to i32
  %117 = call ptr @Aig_NotCond(ptr noundef %112, i32 noundef %116)
  store ptr %117, ptr %10, align 8
  %118 = load ptr, ptr %9, align 8
  %119 = load ptr, ptr %10, align 8
  %120 = call ptr @Aig_ObjCreateCo(ptr noundef %118, ptr noundef %119)
  br label %121

121:                                              ; preds = %103, %102
  %122 = load i32, ptr %11, align 4
  %123 = add nsw i32 %122, 1
  store i32 %123, ptr %11, align 4
  br label %86, !llvm.loop !7

124:                                              ; preds = %95
  %125 = load ptr, ptr %8, align 8
  call void @st__free_table(ptr noundef %125)
  store i32 0, ptr %11, align 4
  br label %126

126:                                              ; preds = %157, %124
  %127 = load i32, ptr %11, align 4
  %128 = load ptr, ptr %4, align 8
  %129 = getelementptr inbounds %struct.Aig_Man_t_, ptr %128, i32 0, i32 3
  %130 = load ptr, ptr %129, align 8
  %131 = call i32 @Vec_PtrSize(ptr noundef %130)
  %132 = icmp slt i32 %127, %131
  br i1 %132, label %133, label %139

133:                                              ; preds = %126
  %134 = load ptr, ptr %4, align 8
  %135 = getelementptr inbounds %struct.Aig_Man_t_, ptr %134, i32 0, i32 3
  %136 = load ptr, ptr %135, align 8
  %137 = load i32, ptr %11, align 4
  %138 = call ptr @Vec_PtrEntry(ptr noundef %136, i32 noundef %137)
  store ptr %138, ptr %10, align 8
  br label %139

139:                                              ; preds = %133, %126
  %140 = phi i1 [ false, %126 ], [ true, %133 ]
  br i1 %140, label %141, label %160

141:                                              ; preds = %139
  %142 = load i32, ptr %11, align 4
  %143 = icmp eq i32 %142, 0
  br i1 %143, label %144, label %145

144:                                              ; preds = %141
  br label %157

145:                                              ; preds = %141
  %146 = load ptr, ptr %9, align 8
  %147 = load ptr, ptr %4, align 8
  %148 = load ptr, ptr %10, align 8
  %149 = call ptr @Aig_ObjFanin0(ptr noundef %148)
  %150 = call ptr @Aig_ManDupSimpleDfs_rec(ptr noundef %146, ptr noundef %147, ptr noundef %149)
  %151 = load ptr, ptr %9, align 8
  %152 = load ptr, ptr %10, align 8
  %153 = call ptr @Aig_ObjChild0Copy(ptr noundef %152)
  %154 = call ptr @Aig_ObjCreateCo(ptr noundef %151, ptr noundef %153)
  %155 = load ptr, ptr %10, align 8
  %156 = getelementptr inbounds %struct.Aig_Obj_t_, ptr %155, i32 0, i32 6
  store ptr %154, ptr %156, align 8
  br label %157

157:                                              ; preds = %145, %144
  %158 = load i32, ptr %11, align 4
  %159 = add nsw i32 %158, 1
  store i32 %159, ptr %11, align 4
  br label %126, !llvm.loop !8

160:                                              ; preds = %139
  %161 = load ptr, ptr %9, align 8
  %162 = call i32 @Aig_ManCleanup(ptr noundef %161)
  %163 = load ptr, ptr %9, align 8
  %164 = load ptr, ptr %4, align 8
  %165 = call i32 @Aig_ManRegNum(ptr noundef %164)
  call void @Aig_ManSetRegNum(ptr noundef %163, i32 noundef %165)
  %166 = load ptr, ptr %9, align 8
  %167 = call i32 @Aig_ManCheck(ptr noundef %166)
  %168 = icmp ne i32 %167, 0
  br i1 %168, label %171, label %169

169:                                              ; preds = %160
  %170 = call i32 (ptr, ...) @printf(ptr noundef @.str)
  br label %171

171:                                              ; preds = %169, %160
  %172 = load ptr, ptr %9, align 8
  ret ptr %172
}