; Function Attrs: nounwind uwtable
define ptr @Aig_ManConvertBddsToAigs(ptr noundef %0, ptr noundef %1, ptr noundef readonly captures(none) %2) local_unnamed_addr #0 {
  tail call void @Aig_ManCleanData(ptr noundef %0) #14
  %4 = getelementptr i8, ptr %0, i64 32
  %.val67 = load ptr, ptr %4, align 8
  %5 = getelementptr i8, ptr %0, i64 156
  %.val68 = load i32, ptr %5, align 4
  %6 = getelementptr i8, ptr %.val67, i64 4
  %.val67.val = load i32, ptr %6, align 4
  %7 = sub nsw i32 %.val67.val, %.val68
  %8 = tail call ptr @Aig_ManStart(i32 noundef %7) #14
  %9 = load ptr, ptr %0, align 8
  %.not.i = icmp eq ptr %9, null
  br i1 %.not.i, label %Abc_UtilStrsav.exit, label %10

10:                                               ; preds = %3
  %11 = tail call i64 @strlen(ptr noundef nonnull readonly dereferenceable(1) %9) #15
  %12 = add i64 %11, 1
  %13 = tail call noalias ptr @malloc(i64 noundef %12) #16
  %14 = tail call ptr @strcpy(ptr noundef nonnull dereferenceable(1) %13, ptr noundef nonnull readonly dereferenceable(1) %9) #14
  br label %Abc_UtilStrsav.exit

Abc_UtilStrsav.exit:                              ; preds = %3, %10
  %15 = phi ptr [ %13, %10 ], [ null, %3 ]
  store ptr %15, ptr %8, align 8
  %16 = getelementptr i8, ptr %8, i64 48
  %.val69 = load ptr, ptr %16, align 8
  %17 = getelementptr i8, ptr %0, i64 48
  %.val70 = load ptr, ptr %17, align 8
  %18 = getelementptr inbounds nuw i8, ptr %.val70, i64 40
  store ptr %.val69, ptr %18, align 8
  %19 = getelementptr inbounds nuw i8, ptr %0, i64 16
  %20 = load ptr, ptr %19, align 8
  %21 = getelementptr i8, ptr %20, i64 4
  %.val80 = load i32, ptr %21, align 4
  %22 = icmp sgt i32 %.val80, 0
  br i1 %22, label %.lr.ph, label %.critedge

.lr.ph:                                           ; preds = %Abc_UtilStrsav.exit, %.lr.ph
  %indvars.iv = phi i64 [ %indvars.iv.next, %.lr.ph ], [ 0, %Abc_UtilStrsav.exit ]
  %23 = phi ptr [ %29, %.lr.ph ], [ %20, %Abc_UtilStrsav.exit ]
  %24 = getelementptr i8, ptr %23, i64 8
  %.val72 = load ptr, ptr %24, align 8
  %25 = getelementptr inbounds nuw ptr, ptr %.val72, i64 %indvars.iv
  %26 = load ptr, ptr %25, align 8
  %27 = tail call ptr @Aig_ObjCreateCi(ptr noundef nonnull %8) #14
  %28 = getelementptr inbounds nuw i8, ptr %26, i64 40
  store ptr %27, ptr %28, align 8
  %indvars.iv.next = add nuw nsw i64 %indvars.iv, 1
  %29 = load ptr, ptr %19, align 8
  %30 = getelementptr i8, ptr %29, i64 4
  %.val = load i32, ptr %30, align 4
  %31 = sext i32 %.val to i64
  %32 = icmp slt i64 %indvars.iv.next, %31
  br i1 %32, label %.lr.ph, label %.critedge, !llvm.loop !4

.critedge:                                        ; preds = %.lr.ph, %Abc_UtilStrsav.exit
  %33 = tail call ptr @st__init_table(ptr noundef nonnull @st__ptrcmp, ptr noundef nonnull @st__ptrhash) #14
  %34 = tail call ptr @Cudd_ReadOne(ptr noundef %1) #14
  %.val71 = load ptr, ptr %16, align 8
  %35 = tail call i32 @st__insert(ptr noundef %33, ptr noundef %34, ptr noundef %.val71) #14
  %36 = load ptr, ptr %19, align 8
  %37 = getelementptr i8, ptr %36, i64 4
  %.val6482 = load i32, ptr %37, align 4
  %38 = icmp sgt i32 %.val6482, 0
  br i1 %38, label %.lr.ph84, label %.critedge2.preheader

.critedge2.preheader:                             ; preds = %.lr.ph84, %.critedge
  %39 = getelementptr i8, ptr %2, i64 4
  %.val6585 = load i32, ptr %39, align 4
  %40 = icmp sgt i32 %.val6585, 0
  br i1 %40, label %.lr.ph87, label %.critedge4

.lr.ph87:                                         ; preds = %.critedge2.preheader
  %41 = getelementptr i8, ptr %2, i64 8
  br label %55

.lr.ph84:                                         ; preds = %.critedge, %.lr.ph84
  %indvars.iv92 = phi i64 [ %indvars.iv.next93, %.lr.ph84 ], [ 0, %.critedge ]
  %42 = phi ptr [ %51, %.lr.ph84 ], [ %36, %.critedge ]
  %43 = getelementptr i8, ptr %42, i64 8
  %.val73 = load ptr, ptr %43, align 8
  %44 = getelementptr inbounds nuw ptr, ptr %.val73, i64 %indvars.iv92
  %45 = load ptr, ptr %44, align 8
  %46 = trunc nuw nsw i64 %indvars.iv92 to i32
  %47 = tail call ptr @Cudd_bddIthVar(ptr noundef %1, i32 noundef %46) #14
  %48 = getelementptr inbounds nuw i8, ptr %45, i64 40
  %49 = load ptr, ptr %48, align 8
  %50 = tail call i32 @st__insert(ptr noundef %33, ptr noundef %47, ptr noundef %49) #14
  %indvars.iv.next93 = add nuw nsw i64 %indvars.iv92, 1
  %51 = load ptr, ptr %19, align 8
  %52 = getelementptr i8, ptr %51, i64 4
  %.val64 = load i32, ptr %52, align 4
  %53 = sext i32 %.val64 to i64
  %54 = icmp slt i64 %indvars.iv.next93, %53
  br i1 %54, label %.lr.ph84, label %.critedge2.preheader, !llvm.loop !6

55:                                               ; preds = %.lr.ph87, %.critedge2
  %indvars.iv95 = phi i64 [ 0, %.lr.ph87 ], [ %indvars.iv.next96, %.critedge2 ]
  %.val74 = load ptr, ptr %41, align 8
  %56 = getelementptr inbounds nuw ptr, ptr %.val74, i64 %indvars.iv95
  %57 = load ptr, ptr %56, align 8
  %58 = tail call ptr @Cudd_ReadLogicZero(ptr noundef %1) #14
  %59 = icmp eq ptr %57, %58
  br i1 %59, label %.critedge2, label %60

60:                                               ; preds = %55
  %61 = ptrtoint ptr %57 to i64
  %62 = and i64 %61, -2
  %63 = inttoptr i64 %62 to ptr
  %64 = tail call ptr @Aig_NodeBddToMuxes_rec(ptr noundef %1, ptr noundef %63, ptr noundef nonnull %8, ptr noundef %33)
  %65 = and i64 %61, 1
  %66 = ptrtoint ptr %64 to i64
  %67 = xor i64 %65, %66
  %68 = inttoptr i64 %67 to ptr
  %69 = tail call ptr @Aig_ObjCreateCo(ptr noundef nonnull %8, ptr noundef %68) #14
  br label %.critedge2

.critedge2:                                       ; preds = %55, %60
  %indvars.iv.next96 = add nuw nsw i64 %indvars.iv95, 1
  %.val65 = load i32, ptr %39, align 4
  %70 = sext i32 %.val65 to i64
  %71 = icmp slt i64 %indvars.iv.next96, %70
  br i1 %71, label %55, label %.critedge4, !llvm.loop !7

.critedge4:                                       ; preds = %.critedge2, %.critedge2.preheader
  tail call void @st__free_table(ptr noundef %33) #14
  %72 = getelementptr inbounds nuw i8, ptr %0, i64 24
  %73 = load ptr, ptr %72, align 8
  %74 = getelementptr i8, ptr %73, i64 4
  %.val6688 = load i32, ptr %74, align 4
  %75 = icmp sgt i32 %.val6688, 0
  br i1 %75, label %.lr.ph90, label %.critedge6

.lr.ph90:                                         ; preds = %.critedge4, %100
  %76 = phi ptr [ %101, %100 ], [ %73, %.critedge4 ]
  %indvars.iv98 = phi i64 [ %indvars.iv.next99, %100 ], [ 0, %.critedge4 ]
  %77 = getelementptr i8, ptr %76, i64 8
  %.val75 = load ptr, ptr %77, align 8
  %78 = getelementptr inbounds nuw ptr, ptr %.val75, i64 %indvars.iv98
  %79 = load ptr, ptr %78, align 8
  %80 = icmp eq i64 %indvars.iv98, 0
  br i1 %80, label %100, label %81

81:                                               ; preds = %.lr.ph90
  %82 = getelementptr i8, ptr %79, i64 8
  %.val76 = load ptr, ptr %82, align 8
  %83 = ptrtoint ptr %.val76 to i64
  %84 = and i64 %83, -2
  %85 = inttoptr i64 %84 to ptr
  %86 = tail call ptr @Aig_ManDupSimpleDfs_rec(ptr noundef nonnull %8, ptr noundef nonnull %0, ptr noundef %85) #14
  %.val77 = load ptr, ptr %82, align 8
  %87 = ptrtoint ptr %.val77 to i64
  %88 = and i64 %87, -2
  %.not.i79 = icmp eq i64 %88, 0
  br i1 %.not.i79, label %Aig_ObjChild0Copy.exit, label %89

89:                                               ; preds = %81
  %90 = inttoptr i64 %88 to ptr
  %91 = getelementptr inbounds nuw i8, ptr %90, i64 40
  %92 = load ptr, ptr %91, align 8
  %93 = and i64 %87, 1
  %94 = ptrtoint ptr %92 to i64
  %95 = xor i64 %93, %94
  %96 = inttoptr i64 %95 to ptr
  br label %Aig_ObjChild0Copy.exit

Aig_ObjChild0Copy.exit:                           ; preds = %81, %89
  %97 = phi ptr [ %96, %89 ], [ null, %81 ]
  %98 = tail call ptr @Aig_ObjCreateCo(ptr noundef nonnull %8, ptr noundef %97) #14
  %99 = getelementptr inbounds nuw i8, ptr %79, i64 40
  store ptr %98, ptr %99, align 8
  %.pre = load ptr, ptr %72, align 8
  br label %100

100:                                              ; preds = %.lr.ph90, %Aig_ObjChild0Copy.exit
  %101 = phi ptr [ %76, %.lr.ph90 ], [ %.pre, %Aig_ObjChild0Copy.exit ]
  %indvars.iv.next99 = add nuw nsw i64 %indvars.iv98, 1
  %102 = getelementptr i8, ptr %101, i64 4
  %.val66 = load i32, ptr %102, align 4
  %103 = sext i32 %.val66 to i64
  %104 = icmp slt i64 %indvars.iv.next99, %103
  br i1 %104, label %.lr.ph90, label %.critedge6, !llvm.loop !8

.critedge6:                                       ; preds = %100, %.critedge4
  %105 = tail call i32 @Aig_ManCleanup(ptr noundef nonnull %8) #14
  %106 = getelementptr i8, ptr %0, i64 104
  %.val78 = load i32, ptr %106, align 8
  tail call void @Aig_ManSetRegNum(ptr noundef nonnull %8, i32 noundef %.val78) #14
  %107 = tail call i32 @Aig_ManCheck(ptr noundef nonnull %8) #14
  %.not = icmp eq i32 %107, 0
  br i1 %.not, label %108, label %109

108:                                              ; preds = %.critedge6
  %puts = tail call i32 @puts(ptr nonnull dereferenceable(1) @str)
  br label %109

109:                                              ; preds = %108, %.critedge6
  ret ptr %8
}